
generated/rv32ui-p-lui:     file format elf32-littleriscv


Disassembly of section .text.init:

00001200 <_start>:
    1200:	00000d13          	li	s10,0
    1204:	00000d93          	li	s11,0

00001208 <test_2>:
    1208:	000000b7          	lui	ra,0x0
    120c:	00000e93          	li	t4,0
    1210:	00200193          	li	gp,2
    1214:	05d09a63          	bne	ra,t4,1268 <fail>

00001218 <test_3>:
    1218:	fffff0b7          	lui	ra,0xfffff
    121c:	4010d093          	sra	ra,ra,0x1
    1220:	80000e93          	li	t4,-2048
    1224:	00300193          	li	gp,3
    1228:	05d09063          	bne	ra,t4,1268 <fail>

0000122c <test_4>:
    122c:	7ffff0b7          	lui	ra,0x7ffff
    1230:	4140d093          	sra	ra,ra,0x14
    1234:	7ff00e93          	li	t4,2047
    1238:	00400193          	li	gp,4
    123c:	03d09663          	bne	ra,t4,1268 <fail>

00001240 <test_5>:
    1240:	800000b7          	lui	ra,0x80000
    1244:	4140d093          	sra	ra,ra,0x14
    1248:	80000e93          	li	t4,-2048
    124c:	00500193          	li	gp,5
    1250:	01d09c63          	bne	ra,t4,1268 <fail>

00001254 <test_6>:
    1254:	80000037          	lui	zero,0x80000
    1258:	00000e93          	li	t4,0
    125c:	00600193          	li	gp,6
    1260:	01d01463          	bne	zero,t4,1268 <fail>
    1264:	00301863          	bne	zero,gp,1274 <pass>

00001268 <fail>:
    1268:	00100d13          	li	s10,1
    126c:	00000d93          	li	s11,0

00001270 <loop_fail>:
    1270:	0000006f          	j	1270 <loop_fail>

00001274 <pass>:
    1274:	00100d13          	li	s10,1
    1278:	00100d93          	li	s11,1

0000127c <loop_pass>:
    127c:	0000006f          	j	127c <loop_pass>
    1280:	0000                	.2byte	0x0
	...

Disassembly of section .tohost:

000012c0 <tohost>:
	...

00001300 <fromhost>:
	...
